; ModuleID = '10/1586.c'
source_filename = "10/1586.c"
target datalayout = "e-m:e-p270:32:32-p271:32:32-p272:64:64-i64:64-f80:128-n8:16:32:64-S128"
target triple = "x86_64-pc-linux-gnu"

@.str = private unnamed_addr constant [3 x i8] c"%d\00", align 1
@.str.1 = private unnamed_addr constant [4 x i8] c"%d\0A\00", align 1

; Function Attrs: noinline nounwind uwtable
define dso_local void @Qsort(i32* %0, i32 %1, i32 %2) #0 {
  %4 = alloca i32*, align 8
  %5 = alloca i32, align 4
  %6 = alloca i32, align 4
  %7 = alloca i32, align 4
  %8 = alloca i32, align 4
  %9 = alloca i32, align 4
  %10 = alloca i32, align 4
  store i32* %0, i32** %4, align 8
  store i32 %1, i32* %5, align 4
  store i32 %2, i32* %6, align 4
  %11 = load i32, i32* %5, align 4
  %12 = load i32, i32* %6, align 4
  %13 = icmp sge i32 %11, %12
  br i1 %13, label %14, label %15

14:                                               ; preds = %3
  br label %86

15:                                               ; preds = %3
  %16 = load i32*, i32** %4, align 8
  %17 = load i32, i32* %5, align 4
  %18 = sext i32 %17 to i64
  %19 = getelementptr inbounds i32, i32* %16, i64 %18
  %20 = load i32, i32* %19, align 4
  store i32 %20, i32* %9, align 4
  %21 = load i32, i32* %5, align 4
  store i32 %21, i32* %8, align 4
  %22 = load i32, i32* %5, align 4
  store i32 %22, i32* %7, align 4
  br label %23

23:                                               ; preds = %58, %15
  %24 = load i32, i32* %7, align 4
  %25 = load i32, i32* %6, align 4
  %26 = icmp sle i32 %24, %25
  br i1 %26, label %27, label %61

27:                                               ; preds = %23
  %28 = load i32*, i32** %4, align 8
  %29 = load i32, i32* %7, align 4
  %30 = sext i32 %29 to i64
  %31 = getelementptr inbounds i32, i32* %28, i64 %30
  %32 = load i32, i32* %31, align 4
  %33 = load i32, i32* %9, align 4
  %34 = icmp sgt i32 %32, %33
  br i1 %34, label %35, label %57

35:                                               ; preds = %27
  %36 = load i32, i32* %8, align 4
  %37 = add nsw i32 %36, 1
  store i32 %37, i32* %8, align 4
  %38 = load i32*, i32** %4, align 8
  %39 = load i32, i32* %7, align 4
  %40 = sext i32 %39 to i64
  %41 = getelementptr inbounds i32, i32* %38, i64 %40
  %42 = load i32, i32* %41, align 4
  store i32 %42, i32* %10, align 4
  %43 = load i32*, i32** %4, align 8
  %44 = load i32, i32* %8, align 4
  %45 = sext i32 %44 to i64
  %46 = getelementptr inbounds i32, i32* %43, i64 %45
  %47 = load i32, i32* %46, align 4
  %48 = load i32*, i32** %4, align 8
  %49 = load i32, i32* %7, align 4
  %50 = sext i32 %49 to i64
  %51 = getelementptr inbounds i32, i32* %48, i64 %50
  store i32 %47, i32* %51, align 4
  %52 = load i32, i32* %10, align 4
  %53 = load i32*, i32** %4, align 8
  %54 = load i32, i32* %8, align 4
  %55 = sext i32 %54 to i64
  %56 = getelementptr inbounds i32, i32* %53, i64 %55
  store i32 %52, i32* %56, align 4
  br label %57

57:                                               ; preds = %35, %27
  br label %58

58:                                               ; preds = %57
  %59 = load i32, i32* %7, align 4
  %60 = add nsw i32 %59, 1
  store i32 %60, i32* %7, align 4
  br label %23

61:                                               ; preds = %23
  br label %62

62:                                               ; preds = %61
  %63 = load i32, i32* %9, align 4
  store i32 %63, i32* %10, align 4
  %64 = load i32*, i32** %4, align 8
  %65 = load i32, i32* %8, align 4
  %66 = sext i32 %65 to i64
  %67 = getelementptr inbounds i32, i32* %64, i64 %66
  %68 = load i32, i32* %67, align 4
  %69 = load i32*, i32** %4, align 8
  %70 = load i32, i32* %5, align 4
  %71 = sext i32 %70 to i64
  %72 = getelementptr inbounds i32, i32* %69, i64 %71
  store i32 %68, i32* %72, align 4
  %73 = load i32, i32* %10, align 4
  %74 = load i32*, i32** %4, align 8
  %75 = load i32, i32* %8, align 4
  %76 = sext i32 %75 to i64
  %77 = getelementptr inbounds i32, i32* %74, i64 %76
  store i32 %73, i32* %77, align 4
  %78 = load i32*, i32** %4, align 8
  %79 = load i32, i32* %5, align 4
  %80 = load i32, i32* %8, align 4
  %81 = sub nsw i32 %80, 1
  call void @Qsort(i32* %78, i32 %79, i32 %81)
  %82 = load i32*, i32** %4, align 8
  %83 = load i32, i32* %8, align 4
  %84 = add nsw i32 %83, 1
  %85 = load i32, i32* %6, align 4
  call void @Qsort(i32* %82, i32 %84, i32 %85)
  br label %86

86:                                               ; preds = %62, %14
  ret void
}

; Function Attrs: noinline nounwind uwtable
define dso_local i32 @num(i32* %0, i32 %1, i32 %2) #0 {
  %4 = alloca i32, align 4
  %5 = alloca i32*, align 8
  %6 = alloca i32, align 4
  %7 = alloca i32, align 4
  %8 = alloca i32, align 4
  %9 = alloca i32, align 4
  %10 = alloca [26 x i32], align 16
  store i32* %0, i32** %5, align 8
  store i32 %1, i32* %6, align 4
  store i32 %2, i32* %7, align 4
  %11 = load i32, i32* %6, align 4
  %12 = load i32, i32* %7, align 4
  %13 = icmp sge i32 %11, %12
  br i1 %13, label %14, label %15

14:                                               ; preds = %3
  store i32 1, i32* %4, align 4
  br label %54

15:                                               ; preds = %3
  %16 = bitcast [26 x i32]* %10 to i8*
  call void @llvm.memset.p0i8.i64(i8* align 16 %16, i8 0, i64 104, i1 false)
  store i32 0, i32* %9, align 4
  %17 = load i32, i32* %6, align 4
  %18 = add nsw i32 %17, 1
  store i32 %18, i32* %8, align 4
  br label %19

19:                                               ; preds = %46, %15
  %20 = load i32, i32* %8, align 4
  %21 = load i32, i32* %7, align 4
  %22 = icmp sle i32 %20, %21
  br i1 %22, label %23, label %49

23:                                               ; preds = %19
  %24 = load i32*, i32** %5, align 8
  %25 = load i32, i32* %8, align 4
  %26 = sext i32 %25 to i64
  %27 = getelementptr inbounds i32, i32* %24, i64 %26
  %28 = load i32, i32* %27, align 4
  %29 = load i32*, i32** %5, align 8
  %30 = load i32, i32* %6, align 4
  %31 = sext i32 %30 to i64
  %32 = getelementptr inbounds i32, i32* %29, i64 %31
  %33 = load i32, i32* %32, align 4
  %34 = icmp sle i32 %28, %33
  br i1 %34, label %35, label %45

35:                                               ; preds = %23
  %36 = load i32*, i32** %5, align 8
  %37 = load i32, i32* %8, align 4
  %38 = load i32, i32* %7, align 4
  %39 = call i32 @num(i32* %36, i32 %37, i32 %38)
  %40 = load i32, i32* %9, align 4
  %41 = sext i32 %40 to i64
  %42 = getelementptr inbounds [26 x i32], [26 x i32]* %10, i64 0, i64 %41
  store i32 %39, i32* %42, align 4
  %43 = load i32, i32* %9, align 4
  %44 = add nsw i32 %43, 1
  store i32 %44, i32* %9, align 4
  br label %45

45:                                               ; preds = %35, %23
  br label %46

46:                                               ; preds = %45
  %47 = load i32, i32* %8, align 4
  %48 = add nsw i32 %47, 1
  store i32 %48, i32* %8, align 4
  br label %19

49:                                               ; preds = %19
  %50 = getelementptr inbounds [26 x i32], [26 x i32]* %10, i64 0, i64 0
  call void @Qsort(i32* %50, i32 0, i32 25)
  %51 = getelementptr inbounds [26 x i32], [26 x i32]* %10, i64 0, i64 0
  %52 = load i32, i32* %51, align 16
  %53 = add nsw i32 %52, 1
  store i32 %53, i32* %4, align 4
  br label %54

54:                                               ; preds = %49, %14
  %55 = load i32, i32* %4, align 4
  ret i32 %55
}

; Function Attrs: argmemonly nounwind willreturn
declare void @llvm.memset.p0i8.i64(i8* nocapture writeonly, i8, i64, i1 immarg) #1

; Function Attrs: noinline nounwind uwtable
define dso_local i32 @main() #0 {
  %1 = alloca i32, align 4
  %2 = alloca i32, align 4
  %3 = alloca i32, align 4
  %4 = alloca i32, align 4
  %5 = alloca i32, align 4
  %6 = alloca i32, align 4
  %7 = alloca i32, align 4
  %8 = alloca i8*, align 8
  %9 = alloca i64, align 8
  %10 = alloca i64, align 8
  store i32 0, i32* %1, align 4
  %11 = call i32 (i8*, ...) @__isoc99_scanf(i8* getelementptr inbounds ([3 x i8], [3 x i8]* @.str, i64 0, i64 0), i32* %5)
  %12 = load i32, i32* %5, align 4
  %13 = zext i32 %12 to i64
  %14 = call i8* @llvm.stacksave()
  store i8* %14, i8** %8, align 8
  %15 = alloca i32, i64 %13, align 16
  store i64 %13, i64* %9, align 8
  %16 = load i32, i32* %5, align 4
  %17 = zext i32 %16 to i64
  %18 = alloca i32, i64 %17, align 16
  store i64 %17, i64* %10, align 8
  store i32 0, i32* %2, align 4
  br label %19

19:                                               ; preds = %28, %0
  %20 = load i32, i32* %2, align 4
  %21 = load i32, i32* %5, align 4
  %22 = icmp slt i32 %20, %21
  br i1 %22, label %23, label %31

23:                                               ; preds = %19
  %24 = load i32, i32* %2, align 4
  %25 = sext i32 %24 to i64
  %26 = getelementptr inbounds i32, i32* %15, i64 %25
  %27 = call i32 (i8*, ...) @__isoc99_scanf(i8* getelementptr inbounds ([3 x i8], [3 x i8]* @.str, i64 0, i64 0), i32* %26)
  br label %28

28:                                               ; preds = %23
  %29 = load i32, i32* %2, align 4
  %30 = add nsw i32 %29, 1
  store i32 %30, i32* %2, align 4
  br label %19

31:                                               ; preds = %19
  store i32 0, i32* %2, align 4
  br label %32

32:                                               ; preds = %44, %31
  %33 = load i32, i32* %2, align 4
  %34 = load i32, i32* %5, align 4
  %35 = icmp slt i32 %33, %34
  br i1 %35, label %36, label %47

36:                                               ; preds = %32
  %37 = load i32, i32* %2, align 4
  %38 = load i32, i32* %5, align 4
  %39 = sub nsw i32 %38, 1
  %40 = call i32 @num(i32* %15, i32 %37, i32 %39)
  %41 = load i32, i32* %2, align 4
  %42 = sext i32 %41 to i64
  %43 = getelementptr inbounds i32, i32* %18, i64 %42
  store i32 %40, i32* %43, align 4
  br label %44

44:                                               ; preds = %36
  %45 = load i32, i32* %2, align 4
  %46 = add nsw i32 %45, 1
  store i32 %46, i32* %2, align 4
  br label %32

47:                                               ; preds = %32
  %48 = load i32, i32* %5, align 4
  %49 = sub nsw i32 %48, 1
  call void @Qsort(i32* %18, i32 0, i32 %49)
  %50 = getelementptr inbounds i32, i32* %18, i64 0
  %51 = load i32, i32* %50, align 16
  %52 = call i32 (i8*, ...) @printf(i8* getelementptr inbounds ([4 x i8], [4 x i8]* @.str.1, i64 0, i64 0), i32 %51)
  %53 = load i8*, i8** %8, align 8
  call void @llvm.stackrestore(i8* %53)
  %54 = load i32, i32* %1, align 4
  ret i32 %54
}

declare dso_local i32 @__isoc99_scanf(i8*, ...) #2

; Function Attrs: nounwind
declare i8* @llvm.stacksave() #3

declare dso_local i32 @printf(i8*, ...) #2

; Function Attrs: nounwind
declare void @llvm.stackrestore(i8*) #3


!llvm.module.flags = !{!0}
!llvm.ident = !{!1}

!0 = !{i32 1, !"wchar_size", i32 4}
!1 = !{!"clang version 10.0.0-4ubuntu1 "}
